target datalayout = "e-m:e-p270:32:32-p271:32:32-p272:64:64-i64:64-i128:128-f80:128-n8:16:32:64-S128"
target triple = "x86_64-pc-linux-gnu"

%"class.cv::utils::trace::details::Region" = type <{ ptr, i32, [4 x i8] }>

; Function Attrs: mustprogress uwtable
define hidden void @_ZN2cv3hal12cpu_baseline9fastAtan2EPKfS3_Pfib(ptr noundef %0, ptr noundef %1, ptr noundef %2, i32 noundef %3, i1 noundef zeroext %4) #0 personality ptr @__gxx_personality_v0 {
  %6 = alloca ptr, align 8
  %7 = alloca ptr, align 8
  %8 = alloca ptr, align 8
  %9 = alloca i32, align 4
  %10 = alloca i8, align 1
  %11 = alloca %"class.cv::utils::trace::details::Region", align 8
  %12 = alloca ptr, align 8
  %13 = alloca i32, align 4
  store ptr %0, ptr %6, align 8, !tbaa !3
  store ptr %1, ptr %7, align 8, !tbaa !3
  store ptr %2, ptr %8, align 8, !tbaa !3
  store i32 %3, ptr %9, align 4, !tbaa !8
  %14 = zext i1 %4 to i8
  store i8 %14, ptr %10, align 1, !tbaa !10
  call void @llvm.lifetime.start.p0(i64 16, ptr %11) #14
  call void @_ZN2cv5utils5trace7details6RegionC1ERKNS3_21LocationStaticStorageE(ptr noundef nonnull align 8 dereferenceable(12) %11, ptr noundef nonnull align 8 dereferenceable(32) @_ZZN2cv3hal12cpu_baseline9fastAtan2EPKfS3_PfibE25__cv_trace_location_fn266)
  %15 = load ptr, ptr %6, align 8, !tbaa !3
  %16 = load ptr, ptr %7, align 8, !tbaa !3
  %17 = load ptr, ptr %8, align 8, !tbaa !3
  %18 = load i32, ptr %9, align 4, !tbaa !8
  %19 = load i8, ptr %10, align 1, !tbaa !10, !range !12, !noundef !13
  %20 = trunc i8 %19 to i1
  invoke void @_ZN2cv3hal12cpu_baseline11fastAtan32fEPKfS3_Pfib(ptr noundef %15, ptr noundef %16, ptr noundef %17, i32 noundef %18, i1 noundef zeroext %20)
          to label %21 unwind label %22

21:                                               ; preds = %5
  call void @_ZN2cv5utils5trace7details6RegionD2Ev(ptr noundef nonnull align 8 dereferenceable(12) %11) #14
  call void @llvm.lifetime.end.p0(i64 16, ptr %11) #14
  ret void

22:                                               ; preds = %5
  %23 = landingpad { ptr, i32 }
          cleanup
  %24 = extractvalue { ptr, i32 } %23, 0
  store ptr %24, ptr %12, align 8
  %25 = extractvalue { ptr, i32 } %23, 1
  store i32 %25, ptr %13, align 4
  call void @_ZN2cv5utils5trace7details6RegionD2Ev(ptr noundef nonnull align 8 dereferenceable(12) %11) #14
  call void @llvm.lifetime.end.p0(i64 16, ptr %11) #14
  br label %26

26:                                               ; preds = %22
  %27 = load ptr, ptr %12, align 8
  %28 = load i32, ptr %13, align 4
  %29 = insertvalue { ptr, i32 } poison, ptr %27, 0
  %30 = insertvalue { ptr, i32 } %29, i32 %28, 1
  resume { ptr, i32 } %30
}